target datalayout = "e-m:e-p270:32:32-p271:32:32-p272:64:64-i64:64-i128:128-f80:128-n8:16:32:64-S128"
target triple = "x86_64-pc-linux-gnu"

%struct.SockAddr = type { %struct.sockaddr_storage, i32 }
%struct.sockaddr_storage = type { i16, [118 x i8], i64 }
%struct.pg_cancel = type { %struct.SockAddr, i32, i32, i32, i32, i32, i32, i32 }
%struct.anon = type { i32, %struct.CancelRequestPacket }
%struct.CancelRequestPacket = type { i32, i32, i32 }
%union.__CONST_SOCKADDR_ARG = type { ptr }

@.str.10 = private unnamed_addr constant [40 x i8] c"PQcancel() -- no cancel object supplied\00", align 1
@.str.11 = private unnamed_addr constant [32 x i8] c"PQcancel() -- socket() failed: \00", align 1
@.str.12 = private unnamed_addr constant [48 x i8] c"PQcancel() -- setsockopt(SO_KEEPALIVE) failed: \00", align 1
@.str.13 = private unnamed_addr constant [33 x i8] c"PQcancel() -- connect() failed: \00", align 1
@.str.14 = private unnamed_addr constant [30 x i8] c"PQcancel() -- send() failed: \00", align 1
@.str.15 = private unnamed_addr constant [7 x i8] c"error \00", align 1
@.str.16 = private unnamed_addr constant [2 x i8] c"\0A\00", align 1

; Function Attrs: nounwind uwtable
define internal zeroext i1 @optional_setsockopt(i32 noundef %0, i32 noundef %1, i32 noundef %2, i32 noundef %3) #0 {
  %5 = alloca i1, align 1
  %6 = alloca i32, align 4
  %7 = alloca i32, align 4
  %8 = alloca i32, align 4
  %9 = alloca i32, align 4
  store i32 %0, ptr %6, align 4
  store i32 %1, ptr %7, align 4
  store i32 %2, ptr %8, align 4
  store i32 %3, ptr %9, align 4
  %10 = load i32, ptr %9, align 4
  %11 = icmp slt i32 %10, 0
  br i1 %11, label %12, label %13

12:                                               ; preds = %4
  store i1 true, ptr %5, align 1
  br label %21

13:                                               ; preds = %4
  %14 = load i32, ptr %6, align 4
  %15 = load i32, ptr %7, align 4
  %16 = load i32, ptr %8, align 4
  %17 = call i32 @setsockopt(i32 noundef %14, i32 noundef %15, i32 noundef %16, ptr noundef %9, i32 noundef 4) #10
  %18 = icmp slt i32 %17, 0
  br i1 %18, label %19, label %20

19:                                               ; preds = %13
  store i1 false, ptr %5, align 1
  br label %21

20:                                               ; preds = %13
  store i1 true, ptr %5, align 1
  br label %21

21:                                               ; preds = %20, %19, %12
  %22 = load i1, ptr %5, align 1
  ret i1 %22
}

; Function Attrs: nounwind uwtable
define i32 @PQcancel(ptr noundef %0, ptr noundef %1, i32 noundef %2) #0 {
  %4 = alloca i32, align 4
  %5 = alloca ptr, align 8
  %6 = alloca ptr, align 8
  %7 = alloca i32, align 4
  %8 = alloca i32, align 4
  %9 = alloca i32, align 4
  %10 = alloca i32, align 4
  %11 = alloca %struct.anon, align 4
  %12 = alloca i32, align 4
  %13 = alloca %union.__CONST_SOCKADDR_ARG, align 8
  %14 = alloca i32, align 4
  %15 = alloca [32 x i8], align 16
  %16 = alloca ptr, align 8
  store ptr %0, ptr %5, align 8
  store ptr %1, ptr %6, align 8
  store i32 %2, ptr %7, align 4
  call void @llvm.lifetime.start.p0(i64 4, ptr %8) #10
  %17 = call ptr @__errno_location() #12
  %18 = load i32, ptr %17, align 4
  store i32 %18, ptr %8, align 4
  call void @llvm.lifetime.start.p0(i64 4, ptr %9) #10
  store i32 -1, ptr %9, align 4
  call void @llvm.lifetime.start.p0(i64 4, ptr %10) #10
  call void @llvm.lifetime.start.p0(i64 16, ptr %11) #10
  %19 = load ptr, ptr %5, align 8
  %20 = icmp ne ptr %19, null
  br i1 %20, label %28, label %21

21:                                               ; preds = %3
  %22 = load ptr, ptr %6, align 8
  %23 = load i32, ptr %7, align 4
  %24 = sext i32 %23 to i64
  %25 = call i64 @strlcpy(ptr noundef %22, ptr noundef @.str.10, i64 noundef %24)
  %26 = load i32, ptr %8, align 4
  %27 = call ptr @__errno_location() #12
  store i32 %26, ptr %27, align 4
  store i32 0, ptr %4, align 4
  store i32 1, ptr %12, align 4
  br label %183

28:                                               ; preds = %3
  %29 = load ptr, ptr %5, align 8
  %30 = getelementptr inbounds nuw %struct.pg_cancel, ptr %29, i32 0, i32 0
  %31 = getelementptr inbounds nuw %struct.SockAddr, ptr %30, i32 0, i32 0
  %32 = getelementptr inbounds nuw %struct.sockaddr_storage, ptr %31, i32 0, i32 0
  %33 = load i16, ptr %32, align 8
  %34 = zext i16 %33 to i32
  %35 = call i32 @socket(i32 noundef %34, i32 noundef 1, i32 noundef 0) #10
  store i32 %35, ptr %9, align 4
  %36 = icmp eq i32 %35, -1
  br i1 %36, label %37, label %42

37:                                               ; preds = %28
  %38 = load ptr, ptr %6, align 8
  %39 = load i32, ptr %7, align 4
  %40 = sext i32 %39 to i64
  %41 = call i64 @strlcpy(ptr noundef %38, ptr noundef @.str.11, i64 noundef %40)
  br label %134

42:                                               ; preds = %28
  %43 = load ptr, ptr %5, align 8
  %44 = getelementptr inbounds nuw %struct.pg_cancel, ptr %43, i32 0, i32 0
  %45 = getelementptr inbounds nuw %struct.SockAddr, ptr %44, i32 0, i32 0
  %46 = getelementptr inbounds nuw %struct.sockaddr_storage, ptr %45, i32 0, i32 0
  %47 = load i16, ptr %46, align 8
  %48 = zext i16 %47 to i32
  %49 = icmp ne i32 %48, 1
  br i1 %49, label %50, label %64

50:                                               ; preds = %42
  %51 = load ptr, ptr %5, align 8
  %52 = getelementptr inbounds nuw %struct.pg_cancel, ptr %51, i32 0, i32 4
  %53 = load i32, ptr %52, align 4
  %54 = icmp ne i32 %53, 0
  br i1 %54, label %55, label %64

55:                                               ; preds = %50
  %56 = load i32, ptr %9, align 4
  %57 = call zeroext i1 @optional_setsockopt(i32 noundef %56, i32 noundef 1, i32 noundef 9, i32 noundef 1)
  br i1 %57, label %63, label %58

58:                                               ; preds = %55
  %59 = load ptr, ptr %6, align 8
  %60 = load i32, ptr %7, align 4
  %61 = sext i32 %60 to i64
  %62 = call i64 @strlcpy(ptr noundef %59, ptr noundef @.str.12, i64 noundef %61)
  br label %134

63:                                               ; preds = %55
  br label %64

64:                                               ; preds = %63, %50, %42
  br label %65

65:                                               ; preds = %82, %64
  %66 = load i32, ptr %9, align 4
  %67 = load ptr, ptr %5, align 8
  %68 = getelementptr inbounds nuw %struct.pg_cancel, ptr %67, i32 0, i32 0
  %69 = getelementptr inbounds nuw %struct.SockAddr, ptr %68, i32 0, i32 0
  store ptr %69, ptr %13, align 8
  %70 = load ptr, ptr %5, align 8
  %71 = getelementptr inbounds nuw %struct.pg_cancel, ptr %70, i32 0, i32 0
  %72 = getelementptr inbounds nuw %struct.SockAddr, ptr %71, i32 0, i32 1
  %73 = load i32, ptr %72, align 8
  %74 = getelementptr inbounds nuw %union.__CONST_SOCKADDR_ARG, ptr %13, i32 0, i32 0
  %75 = load ptr, ptr %74, align 8
  %76 = call i32 @connect(i32 noundef %66, ptr %75, i32 noundef %73)
  %77 = icmp slt i32 %76, 0
  br i1 %77, label %78, label %88

78:                                               ; preds = %65
  %79 = call ptr @__errno_location() #12
  %80 = load i32, ptr %79, align 4
  %81 = icmp eq i32 %80, 4
  br i1 %81, label %82, label %83

82:                                               ; preds = %78
  br label %65

83:                                               ; preds = %78
  %84 = load ptr, ptr %6, align 8
  %85 = load i32, ptr %7, align 4
  %86 = sext i32 %85 to i64
  %87 = call i64 @strlcpy(ptr noundef %84, ptr noundef @.str.13, i64 noundef %86)
  br label %134

88:                                               ; preds = %65
  %89 = getelementptr inbounds nuw %struct.anon, ptr %11, i32 0, i32 0
  store i32 268435456, ptr %89, align 4
  %90 = getelementptr inbounds nuw %struct.anon, ptr %11, i32 0, i32 1
  %91 = getelementptr inbounds nuw %struct.CancelRequestPacket, ptr %90, i32 0, i32 0
  store i32 773247492, ptr %91, align 4
  %92 = load ptr, ptr %5, align 8
  %93 = getelementptr inbounds nuw %struct.pg_cancel, ptr %92, i32 0, i32 1
  %94 = load i32, ptr %93, align 8
  %95 = call i32 @llvm.bswap.i32(i32 %94)
  %96 = getelementptr inbounds nuw %struct.anon, ptr %11, i32 0, i32 1
  %97 = getelementptr inbounds nuw %struct.CancelRequestPacket, ptr %96, i32 0, i32 1
  store i32 %95, ptr %97, align 4
  %98 = load ptr, ptr %5, align 8
  %99 = getelementptr inbounds nuw %struct.pg_cancel, ptr %98, i32 0, i32 2
  %100 = load i32, ptr %99, align 4
  %101 = call i32 @llvm.bswap.i32(i32 %100)
  %102 = getelementptr inbounds nuw %struct.anon, ptr %11, i32 0, i32 1
  %103 = getelementptr inbounds nuw %struct.CancelRequestPacket, ptr %102, i32 0, i32 2
  store i32 %101, ptr %103, align 4
  br label %104

104:                                              ; preds = %112, %88
  %105 = load i32, ptr %9, align 4
  %106 = call i64 @send(i32 noundef %105, ptr noundef %11, i64 noundef 16, i32 noundef 0)
  %107 = icmp ne i64 %106, 16
  br i1 %107, label %108, label %118

108:                                              ; preds = %104
  %109 = call ptr @__errno_location() #12
  %110 = load i32, ptr %109, align 4
  %111 = icmp eq i32 %110, 4
  br i1 %111, label %112, label %113

112:                                              ; preds = %108
  br label %104

113:                                              ; preds = %108
  %114 = load ptr, ptr %6, align 8
  %115 = load i32, ptr %7, align 4
  %116 = sext i32 %115 to i64
  %117 = call i64 @strlcpy(ptr noundef %114, ptr noundef @.str.14, i64 noundef %116)
  br label %134

118:                                              ; preds = %104
  br label %119

119:                                              ; preds = %127, %118
  %120 = load i32, ptr %9, align 4
  %121 = call i64 @recv(i32 noundef %120, ptr noundef %11, i64 noundef 1, i32 noundef 0)
  %122 = icmp slt i64 %121, 0
  br i1 %122, label %123, label %129

123:                                              ; preds = %119
  %124 = call ptr @__errno_location() #12
  %125 = load i32, ptr %124, align 4
  %126 = icmp eq i32 %125, 4
  br i1 %126, label %127, label %128

127:                                              ; preds = %123
  br label %119

128:                                              ; preds = %123
  br label %129

129:                                              ; preds = %128, %119
  %130 = load i32, ptr %9, align 4
  %131 = call i32 @close(i32 noundef %130)
  %132 = load i32, ptr %8, align 4
  %133 = call ptr @__errno_location() #12
  store i32 %132, ptr %133, align 4
  store i32 1, ptr %4, align 4
  store i32 1, ptr %12, align 4
  br label %183

134:                                              ; preds = %113, %83, %58, %37
  %135 = load i32, ptr %7, align 4
  %136 = sext i32 %135 to i64
  %137 = load ptr, ptr %6, align 8
  %138 = call i64 @strlen(ptr noundef %137) #14
  %139 = sub i64 %136, %138
  %140 = sub i64 %139, 2
  %141 = trunc i64 %140 to i32
  store i32 %141, ptr %10, align 4
  %142 = load i32, ptr %10, align 4
  %143 = icmp sge i32 %142, 0
  br i1 %143, label %144, label %174

144:                                              ; preds = %134
  call void @llvm.lifetime.start.p0(i64 4, ptr %14) #10
  %145 = call ptr @__errno_location() #12
  %146 = load i32, ptr %145, align 4
  store i32 %146, ptr %14, align 4
  call void @llvm.lifetime.start.p0(i64 32, ptr %15) #10
  call void @llvm.lifetime.start.p0(i64 8, ptr %16) #10
  %147 = getelementptr inbounds [32 x i8], ptr %15, i64 0, i64 0
  %148 = getelementptr inbounds nuw i8, ptr %147, i64 32
  %149 = getelementptr inbounds i8, ptr %148, i64 -1
  store ptr %149, ptr %16, align 8
  %150 = load ptr, ptr %16, align 8
  store i8 0, ptr %150, align 1
  br label %151

151:                                              ; preds = %160, %144
  %152 = load i32, ptr %14, align 4
  %153 = srem i32 %152, 10
  %154 = add i32 %153, 48
  %155 = trunc i32 %154 to i8
  %156 = load ptr, ptr %16, align 8
  %157 = getelementptr inbounds i8, ptr %156, i32 -1
  store ptr %157, ptr %16, align 8
  store i8 %155, ptr %157, align 1
  %158 = load i32, ptr %14, align 4
  %159 = sdiv i32 %158, 10
  store i32 %159, ptr %14, align 4
  br label %160

160:                                              ; preds = %151
  %161 = load i32, ptr %14, align 4
  %162 = icmp sgt i32 %161, 0
  br i1 %162, label %151, label %163, !llvm.loop !3

163:                                              ; preds = %160
  %164 = load ptr, ptr %16, align 8
  %165 = getelementptr inbounds i8, ptr %164, i64 -6
  store ptr %165, ptr %16, align 8
  %166 = load ptr, ptr %16, align 8
  call void @llvm.memcpy.p0.p0.i64(ptr align 1 %166, ptr align 1 @.str.15, i64 6, i1 false)
  %167 = load ptr, ptr %6, align 8
  %168 = load ptr, ptr %16, align 8
  %169 = load i32, ptr %10, align 4
  %170 = sext i32 %169 to i64
  %171 = call ptr @strncat(ptr noundef %167, ptr noundef %168, i64 noundef %170) #10
  %172 = load ptr, ptr %6, align 8
  %173 = call ptr @strcat(ptr noundef %172, ptr noundef @.str.16) #10
  call void @llvm.lifetime.end.p0(i64 8, ptr %16) #10
  call void @llvm.lifetime.end.p0(i64 32, ptr %15) #10
  call void @llvm.lifetime.end.p0(i64 4, ptr %14) #10
  br label %174

174:                                              ; preds = %163, %134
  %175 = load i32, ptr %9, align 4
  %176 = icmp ne i32 %175, -1
  br i1 %176, label %177, label %180

177:                                              ; preds = %174
  %178 = load i32, ptr %9, align 4
  %179 = call i32 @close(i32 noundef %178)
  br label %180

180:                                              ; preds = %177, %174
  %181 = load i32, ptr %8, align 4
  %182 = call ptr @__errno_location() #12
  store i32 %181, ptr %182, align 4
  store i32 0, ptr %4, align 4
  store i32 1, ptr %12, align 4
  br label %183

183:                                              ; preds = %180, %129, %21
  call void @llvm.lifetime.end.p0(i64 16, ptr %11) #10
  call void @llvm.lifetime.end.p0(i64 4, ptr %10) #10
  call void @llvm.lifetime.end.p0(i64 4, ptr %9) #10
  call void @llvm.lifetime.end.p0(i64 4, ptr %8) #10
  %184 = load i32, ptr %4, align 4
  ret i32 %184
}