; Function Attrs: nounwind uwtable
define range(i32 0, 2) i32 @PQcancel(ptr noundef %0, ptr noundef %1, i32 noundef %2) local_unnamed_addr #0 {
  %4 = alloca i32, align 4
  %5 = alloca %struct.anon, align 4
  %6 = alloca [32 x i8], align 16
  %7 = tail call ptr @__errno_location() #18
  %8 = load i32, ptr %7, align 4
  call void @llvm.lifetime.start.p0(i64 16, ptr nonnull %5) #16
  %.not = icmp eq ptr %0, null
  br i1 %.not, label %9, label %12

9:                                                ; preds = %3
  %10 = sext i32 %2 to i64
  %11 = tail call i64 @strlcpy(ptr noundef %1, ptr noundef nonnull dereferenceable(1) @.str.10, i64 noundef %10) #16
  br label %91

12:                                               ; preds = %3
  %13 = load i16, ptr %0, align 8
  %14 = zext i16 %13 to i32
  %15 = tail call i32 @socket(i32 noundef %14, i32 noundef 1, i32 noundef 0) #16
  %16 = icmp eq i32 %15, -1
  br i1 %16, label %17, label %20

17:                                               ; preds = %12
  %18 = sext i32 %2 to i64
  %19 = tail call i64 @strlcpy(ptr noundef %1, ptr noundef nonnull dereferenceable(1) @.str.11, i64 noundef %18) #16
  br label %68

20:                                               ; preds = %12
  %21 = load i16, ptr %0, align 8
  %.not47 = icmp eq i16 %21, 1
  br i1 %.not47, label %31, label %22

22:                                               ; preds = %20
  %23 = getelementptr inbounds nuw i8, ptr %0, i64 148
  %24 = load i32, ptr %23, align 4
  %.not48 = icmp eq i32 %24, 0
  br i1 %.not48, label %31, label %25

25:                                               ; preds = %22
  call void @llvm.lifetime.start.p0(i64 4, ptr nonnull %4)
  store i32 1, ptr %4, align 4
  %26 = call i32 @setsockopt(i32 noundef range(i32 0, -1) %15, i32 noundef 1, i32 noundef 9, ptr noundef nonnull %4, i32 noundef 4) #16
  %27 = icmp sgt i32 %26, -1
  call void @llvm.lifetime.end.p0(i64 4, ptr nonnull %4)
  br i1 %27, label %31, label %28

28:                                               ; preds = %25
  %29 = sext i32 %2 to i64
  %30 = call i64 @strlcpy(ptr noundef %1, ptr noundef nonnull dereferenceable(1) @.str.12, i64 noundef %29) #16
  br label %68

31:                                               ; preds = %25, %22, %20
  %32 = getelementptr inbounds nuw i8, ptr %0, i64 128
  br label %33

33:                                               ; preds = %37, %31
  %34 = load i32, ptr %32, align 8
  %35 = call i32 @connect(i32 noundef %15, ptr nonnull %0, i32 noundef %34) #16
  %36 = icmp slt i32 %35, 0
  br i1 %36, label %37, label %43

37:                                               ; preds = %33
  %38 = load i32, ptr %7, align 4
  %39 = icmp eq i32 %38, 4
  br i1 %39, label %33, label %40

40:                                               ; preds = %37
  %41 = sext i32 %2 to i64
  %42 = call i64 @strlcpy(ptr noundef %1, ptr noundef nonnull dereferenceable(1) @.str.13, i64 noundef %41) #16
  br label %68

43:                                               ; preds = %33
  store i32 268435456, ptr %5, align 4
  %44 = getelementptr inbounds nuw i8, ptr %5, i64 4
  store i32 773247492, ptr %44, align 4
  %45 = getelementptr inbounds nuw i8, ptr %0, i64 136
  %46 = load i32, ptr %45, align 8
  %47 = call i32 @llvm.bswap.i32(i32 %46)
  %48 = getelementptr inbounds nuw i8, ptr %5, i64 8
  store i32 %47, ptr %48, align 4
  %49 = getelementptr inbounds nuw i8, ptr %0, i64 140
  %50 = load i32, ptr %49, align 4
  %51 = call i32 @llvm.bswap.i32(i32 %50)
  %52 = getelementptr inbounds nuw i8, ptr %5, i64 12
  store i32 %51, ptr %52, align 4
  br label %53

53:                                               ; preds = %55, %43
  %54 = call i64 @send(i32 noundef %15, ptr noundef nonnull %5, i64 noundef 16, i32 noundef 0) #16
  %.not49 = icmp eq i64 %54, 16
  br i1 %.not49, label %.preheader, label %55

55:                                               ; preds = %53
  %56 = load i32, ptr %7, align 4
  %57 = icmp eq i32 %56, 4
  br i1 %57, label %53, label %58

58:                                               ; preds = %55
  %59 = sext i32 %2 to i64
  %60 = call i64 @strlcpy(ptr noundef %1, ptr noundef nonnull dereferenceable(1) @.str.14, i64 noundef %59) #16
  br label %68

.preheader:                                       ; preds = %53, %63
  %61 = call i64 @recv(i32 noundef %15, ptr noundef nonnull %5, i64 noundef 1, i32 noundef 0) #16
  %62 = icmp slt i64 %61, 0
  br i1 %62, label %63, label %66

63:                                               ; preds = %.preheader
  %64 = load i32, ptr %7, align 4
  %65 = icmp eq i32 %64, 4
  br i1 %65, label %.preheader, label %66

66:                                               ; preds = %63, %.preheader
  %67 = call i32 @close(i32 noundef %15) #16
  br label %91

68:                                               ; preds = %58, %40, %28, %17
  %69 = call i64 @strlen(ptr noundef nonnull dereferenceable(1) %1) #20
  %70 = trunc i64 %69 to i32
  %71 = sub i32 %2, %70
  %72 = add i32 %71, -2
  %73 = icmp sgt i32 %72, -1
  br i1 %73, label %74, label %88

74:                                               ; preds = %68
  %75 = load i32, ptr %7, align 4
  call void @llvm.lifetime.start.p0(i64 32, ptr nonnull %6) #16
  %76 = getelementptr inbounds nuw i8, ptr %6, i64 31
  store i8 0, ptr %76, align 1
  br label %77

77:                                               ; preds = %77, %74
  %.042 = phi i32 [ %75, %74 ], [ %82, %77 ]
  %.0 = phi ptr [ %76, %74 ], [ %81, %77 ]
  %78 = srem i32 %.042, 10
  %79 = trunc nsw i32 %78 to i8
  %80 = add nsw i8 %79, 48
  %81 = getelementptr inbounds i8, ptr %.0, i64 -1
  store i8 %80, ptr %81, align 1
  %82 = udiv i32 %.042, 10
  %83 = icmp sgt i32 %.042, 9
  br i1 %83, label %77, label %84, !llvm.loop !3

84:                                               ; preds = %77
  %85 = getelementptr inbounds i8, ptr %.0, i64 -7
  call void @llvm.memcpy.p0.p0.i64(ptr noundef nonnull align 1 dereferenceable(6) %85, ptr noundef nonnull align 1 dereferenceable(6) @.str.15, i64 6, i1 false)
  %86 = zext nneg i32 %72 to i64
  %87 = call ptr @strncat(ptr noundef nonnull dereferenceable(1) %1, ptr noundef nonnull %85, i64 noundef %86) #16
  %strlen = call i64 @strlen(ptr nonnull dereferenceable(1) %1)
  %endptr = getelementptr inbounds i8, ptr %1, i64 %strlen
  store i16 10, ptr %endptr, align 1
  call void @llvm.lifetime.end.p0(i64 32, ptr nonnull %6) #16
  br label %88

88:                                               ; preds = %84, %68
  br i1 %16, label %91, label %89

89:                                               ; preds = %88
  %90 = call i32 @close(i32 noundef %15) #16
  br label %91

91:                                               ; preds = %88, %89, %66, %9
  %.043 = phi i32 [ 1, %66 ], [ 0, %9 ], [ 0, %89 ], [ 0, %88 ]
  store i32 %8, ptr %7, align 4
  call void @llvm.lifetime.end.p0(i64 16, ptr nonnull %5) #16
  ret i32 %.043
}